target datalayout = "e-m:e-p270:32:32-p271:32:32-p272:64:64-i64:64-i128:128-f80:128-n8:16:32:64-S128"
target triple = "x86_64-pc-linux-gnu"

%struct.grep_opt = type { ptr, ptr, ptr, ptr, ptr, ptr, i32, i32, i32, i32, i32, i32, i32, i32, i32, i32, i32, i32, i32, i32, i32, i32, i32, i32, i32, i32, i32, i32, i32, i32, i32, i32, [9 x [75 x i8]], i32, i32, i32, i32, i32, i32, i32, ptr, ptr, ptr }
%struct.grep_pat = type { ptr, ptr, i32, i32, ptr, i64, i32, %struct.re_pattern_buffer, ptr, ptr, ptr, ptr, ptr, i32, i8 }
%struct.re_pattern_buffer = type { ptr, i64, i64, i64, ptr, ptr, i64, i8 }

; Function Attrs: nounwind uwtable
define internal void @free_pcre2_pattern(ptr noundef %0) #0 {
  %2 = alloca ptr, align 8
  store ptr %0, ptr %2, align 8, !tbaa !44
  ret void
}

; Function Attrs: nounwind uwtable
define internal void @free_grep_pat(ptr noundef %0) #0 {
  %2 = alloca ptr, align 8
  %3 = alloca ptr, align 8
  %4 = alloca ptr, align 8
  store ptr %0, ptr %2, align 8, !tbaa !44
  call void @llvm.lifetime.start.p0(i64 8, ptr %3) #11
  call void @llvm.lifetime.start.p0(i64 8, ptr %4) #11
  %5 = load ptr, ptr %2, align 8, !tbaa !44
  store ptr %5, ptr %3, align 8, !tbaa !44
  br label %6

6:                                                ; preds = %33, %1
  %7 = load ptr, ptr %3, align 8, !tbaa !44
  %8 = icmp ne ptr %7, null
  br i1 %8, label %9, label %35

9:                                                ; preds = %6
  %10 = load ptr, ptr %3, align 8, !tbaa !44
  %11 = getelementptr inbounds nuw %struct.grep_pat, ptr %10, i32 0, i32 0
  %12 = load ptr, ptr %11, align 8, !tbaa !59
  store ptr %12, ptr %4, align 8, !tbaa !44
  %13 = load ptr, ptr %3, align 8, !tbaa !44
  %14 = getelementptr inbounds nuw %struct.grep_pat, ptr %13, i32 0, i32 3
  %15 = load i32, ptr %14, align 4, !tbaa !54
  switch i32 %15, label %27 [
    i32 0, label %16
    i32 1, label %16
    i32 2, label %16
  ]

16:                                               ; preds = %9, %9, %9
  %17 = load ptr, ptr %3, align 8, !tbaa !44
  %18 = getelementptr inbounds nuw %struct.grep_pat, ptr %17, i32 0, i32 8
  %19 = load ptr, ptr %18, align 8, !tbaa !79
  %20 = icmp ne ptr %19, null
  br i1 %20, label %21, label %23

21:                                               ; preds = %16
  %22 = load ptr, ptr %3, align 8, !tbaa !44
  call void @free_pcre2_pattern(ptr noundef %22)
  br label %26

23:                                               ; preds = %16
  %24 = load ptr, ptr %3, align 8, !tbaa !44
  %25 = getelementptr inbounds nuw %struct.grep_pat, ptr %24, i32 0, i32 7
  call void @regfree(ptr noundef %25)
  br label %26

26:                                               ; preds = %23, %21
  br label %28

27:                                               ; preds = %9
  br label %28

28:                                               ; preds = %27, %26
  %29 = load ptr, ptr %3, align 8, !tbaa !44
  %30 = getelementptr inbounds nuw %struct.grep_pat, ptr %29, i32 0, i32 4
  %31 = load ptr, ptr %30, align 8, !tbaa !46
  call void @free(ptr noundef %31) #11
  %32 = load ptr, ptr %3, align 8, !tbaa !44
  call void @free(ptr noundef %32) #11
  br label %33

33:                                               ; preds = %28
  %34 = load ptr, ptr %4, align 8, !tbaa !44
  store ptr %34, ptr %3, align 8, !tbaa !44
  br label %6, !llvm.loop !80

35:                                               ; preds = %6
  call void @llvm.lifetime.end.p0(i64 8, ptr %4) #11
  call void @llvm.lifetime.end.p0(i64 8, ptr %3) #11
  ret void
}

; Function Attrs: nounwind uwtable
define dso_local void @free_grep_patterns(ptr noundef %0) #0 {
  %2 = alloca ptr, align 8
  store ptr %0, ptr %2, align 8, !tbaa !19
  %3 = load ptr, ptr %2, align 8, !tbaa !19
  %4 = getelementptr inbounds nuw %struct.grep_opt, ptr %3, i32 0, i32 0
  %5 = load ptr, ptr %4, align 8, !tbaa !63
  call void @free_grep_pat(ptr noundef %5)
  %6 = load ptr, ptr %2, align 8, !tbaa !19
  %7 = getelementptr inbounds nuw %struct.grep_opt, ptr %6, i32 0, i32 2
  %8 = load ptr, ptr %7, align 8, !tbaa !69
  call void @free_grep_pat(ptr noundef %8)
  %9 = load ptr, ptr %2, align 8, !tbaa !19
  %10 = getelementptr inbounds nuw %struct.grep_opt, ptr %9, i32 0, i32 4
  %11 = load ptr, ptr %10, align 8, !tbaa !68
  %12 = icmp ne ptr %11, null
  br i1 %12, label %13, label %17

13:                                               ; preds = %1
  %14 = load ptr, ptr %2, align 8, !tbaa !19
  %15 = getelementptr inbounds nuw %struct.grep_opt, ptr %14, i32 0, i32 4
  %16 = load ptr, ptr %15, align 8, !tbaa !68
  call void @free_pattern_expr(ptr noundef %16)
  br label %17

17:                                               ; preds = %13, %1
  ret void
}