; Function Attrs: nounwind uwtable
define dso_local void @free_grep_patterns(ptr noundef readonly captures(none) %0) local_unnamed_addr #0 {
  %2 = load ptr, ptr %0, align 8, !tbaa !51
  %.not11.i = icmp eq ptr %2, null
  br i1 %.not11.i, label %free_grep_pat.exit, label %.lr.ph.i

.lr.ph.i:                                         ; preds = %1, %11
  %.012.i = phi ptr [ %3, %11 ], [ %2, %1 ]
  %3 = load ptr, ptr %.012.i, align 8, !tbaa !44
  %4 = getelementptr inbounds nuw i8, ptr %.012.i, i64 20
  %5 = load i32, ptr %4, align 4, !tbaa !39
  %switch.i = icmp ult i32 %5, 3
  br i1 %switch.i, label %6, label %11

6:                                                ; preds = %.lr.ph.i
  %7 = getelementptr inbounds nuw i8, ptr %.012.i, i64 112
  %8 = load ptr, ptr %7, align 8, !tbaa !68
  %.not10.i = icmp eq ptr %8, null
  br i1 %.not10.i, label %9, label %11

9:                                                ; preds = %6
  %10 = getelementptr inbounds nuw i8, ptr %.012.i, i64 48
  tail call void @regfree(ptr noundef nonnull %10) #18
  br label %11

11:                                               ; preds = %9, %6, %.lr.ph.i
  %12 = getelementptr inbounds nuw i8, ptr %.012.i, i64 24
  %13 = load ptr, ptr %12, align 8, !tbaa !30
  tail call void @free(ptr noundef %13) #18
  tail call void @free(ptr noundef nonnull %.012.i) #18
  %.not.i = icmp eq ptr %3, null
  br i1 %.not.i, label %free_grep_pat.exit, label %.lr.ph.i, !llvm.loop !69

free_grep_pat.exit:                               ; preds = %11, %1
  %14 = getelementptr inbounds nuw i8, ptr %0, i64 16
  %15 = load ptr, ptr %14, align 8, !tbaa !53
  %.not11.i4 = icmp eq ptr %15, null
  br i1 %.not11.i4, label %free_grep_pat.exit10, label %.lr.ph.i5

.lr.ph.i5:                                        ; preds = %free_grep_pat.exit, %24
  %.012.i6 = phi ptr [ %16, %24 ], [ %15, %free_grep_pat.exit ]
  %16 = load ptr, ptr %.012.i6, align 8, !tbaa !44
  %17 = getelementptr inbounds nuw i8, ptr %.012.i6, i64 20
  %18 = load i32, ptr %17, align 4, !tbaa !39
  %switch.i7 = icmp ult i32 %18, 3
  br i1 %switch.i7, label %19, label %24

19:                                               ; preds = %.lr.ph.i5
  %20 = getelementptr inbounds nuw i8, ptr %.012.i6, i64 112
  %21 = load ptr, ptr %20, align 8, !tbaa !68
  %.not10.i9 = icmp eq ptr %21, null
  br i1 %.not10.i9, label %22, label %24

22:                                               ; preds = %19
  %23 = getelementptr inbounds nuw i8, ptr %.012.i6, i64 48
  tail call void @regfree(ptr noundef nonnull %23) #18
  br label %24

24:                                               ; preds = %22, %19, %.lr.ph.i5
  %25 = getelementptr inbounds nuw i8, ptr %.012.i6, i64 24
  %26 = load ptr, ptr %25, align 8, !tbaa !30
  tail call void @free(ptr noundef %26) #18
  tail call void @free(ptr noundef nonnull %.012.i6) #18
  %.not.i8 = icmp eq ptr %16, null
  br i1 %.not.i8, label %free_grep_pat.exit10, label %.lr.ph.i5, !llvm.loop !69

free_grep_pat.exit10:                             ; preds = %24, %free_grep_pat.exit
  %27 = getelementptr inbounds nuw i8, ptr %0, i64 32
  %28 = load ptr, ptr %27, align 8, !tbaa !62
  %.not = icmp eq ptr %28, null
  br i1 %.not, label %30, label %29

29:                                               ; preds = %free_grep_pat.exit10
  tail call fastcc void @free_pattern_expr(ptr noundef nonnull %28)
  br label %30

30:                                               ; preds = %29, %free_grep_pat.exit10
  ret void
}